; Function Attrs: nofree norecurse nosync nounwind memory(read, inaccessiblemem: none) uwtable
define range(i32 0, 2) i32 @Saig_StrSimIsEqual(ptr noundef readonly captures(none) %0, ptr noundef readonly captures(none) %1) local_unnamed_addr #0 {
  %3 = getelementptr inbounds nuw i8, ptr %0, i64 40
  %4 = load ptr, ptr %3, align 8, !tbaa !3
  %5 = getelementptr inbounds nuw i8, ptr %1, i64 40
  %6 = load ptr, ptr %5, align 8, !tbaa !3
  br label %8

7:                                                ; preds = %8
  %indvars.iv.next = add nuw nsw i64 %indvars.iv, 1
  %exitcond.not = icmp eq i64 %indvars.iv.next, 16
  br i1 %exitcond.not, label %13, label %8, !llvm.loop !10

8:                                                ; preds = %2, %7
  %indvars.iv = phi i64 [ 0, %2 ], [ %indvars.iv.next, %7 ]
  %9 = getelementptr inbounds nuw i32, ptr %4, i64 %indvars.iv
  %10 = load i32, ptr %9, align 4, !tbaa !6
  %11 = getelementptr inbounds nuw i32, ptr %6, i64 %indvars.iv
  %12 = load i32, ptr %11, align 4, !tbaa !6
  %.not = icmp eq i32 %10, %12
  br i1 %.not, label %7, label %13

13:                                               ; preds = %7, %8
  %.08 = phi i32 [ 0, %8 ], [ 1, %7 ]
  ret i32 %.08
}